target datalayout = "e-m:e-p270:32:32-p271:32:32-p272:64:64-i64:64-i128:128-f80:128-n8:16:32:64-S128"
target triple = "x86_64-pc-linux-gnu"

%struct.pointf_s = type { double, double }
%struct.GVJ_s = type { ptr, ptr, ptr, ptr, ptr, ptr, i32, ptr, ptr, ptr, ptr, i64, i64, ptr, i32, %struct.gvplugin_active_render_s, %struct.gvplugin_active_device_s, %struct.gvplugin_active_loadimage_t, ptr, %struct.pointf_s, i8, ptr, i32, ptr, i8, ptr, i32, i32, i32, %struct.point, %struct.point, %struct.point, %struct.point, %struct.point, i32, %struct.boxf, %struct.pointf_s, %struct.boxf, %struct.boxf, %struct.pointf_s, %struct.pointf_s, double, i32, %struct.pointf_s, %struct.boxf, %struct.pointf_s, %struct.pointf_s, i32, i32, %struct.box, %struct.box, %struct.pointf_s, %struct.pointf_s, %struct.pointf_s, i8, i8, i8, i8, i8, i8, %struct.pointf_s, %struct.pointf_s, ptr, ptr, ptr, ptr, ptr, ptr, i64, ptr }
%struct.gvplugin_active_render_s = type { ptr, i32, ptr, ptr }
%struct.gvplugin_active_device_s = type { ptr, i32, ptr, ptr }
%struct.gvplugin_active_loadimage_t = type { ptr, i32, ptr }
%struct.point = type { i32, i32 }
%struct.boxf = type { %struct.pointf_s, %struct.pointf_s }
%struct.box = type { %struct.point, %struct.point }

@onetime = internal global i8 1, align 1
@.str.6 = private unnamed_addr constant [9 x i8] c"rotation\00", align 1
@.str.7 = private unnamed_addr constant [15 x i8] c".PS %.5f %.5f\0A\00", align 1
@.str.8 = private unnamed_addr constant [169 x i8] c"%s to change drawing size, multiply the width and height on the .PS line above and the number on the two lines below (rounded to the nearest integer) by a scale factor\0A\00", align 1
@pic_comments = internal constant [3 x i8] c"# \00", align 1
@Fontscale = internal global double 0.000000e+00, align 8
@.str.9 = private unnamed_addr constant [35 x i8] c".nr SF %.0f\0Ascalethickness = %.0f\0A\00", align 1
@.str.10 = private unnamed_addr constant [58 x i8] c"%s don't change anything below this line in this drawing\0A\00", align 1
@.str.11 = private unnamed_addr constant [60 x i8] c"%s non-fatal run-time pic version determination, version 2\0A\00", align 1
@.str.12 = private unnamed_addr constant [49 x i8] c"boxrad=2.0 %s will be reset to 0.0 by gpic only\0A\00", align 1
@.str.13 = private unnamed_addr constant [39 x i8] c"scale=1.0 %s required for comparisons\0A\00", align 1
@.str.14 = private unnamed_addr constant [51 x i8] c"%s boxrad is now 0.0 in gpic, else it remains 2.0\0A\00", align 1
@.str.15 = private unnamed_addr constant [62 x i8] c"%s dashwid is 0.1 in 10th Edition, 0.05 in DWB 2 and in gpic\0A\00", align 1
@.str.16 = private unnamed_addr constant [110 x i8] c"%s fillval is 0.3 in 10th Edition (fill 0 means black), 0.5 in gpic (fill 0 means white), undefined in DWB 2\0A\00", align 1
@.str.17 = private unnamed_addr constant [91 x i8] c"%s fill has no meaning in DWB 2, gpic can use fill or filled, 10th Edition uses fill only\0A\00", align 1
@.str.18 = private unnamed_addr constant [54 x i8] c"%s DWB 2 doesn't use fill and doesn't define fillval\0A\00", align 1
@.str.19 = private unnamed_addr constant [69 x i8] c"%s reset works in gpic and 10th edition, but isn't defined in DWB 2\0A\00", align 1
@.str.20 = private unnamed_addr constant [36 x i8] c"%s DWB 2 compatibility definitions\0A\00", align 1
@.str.21 = private unnamed_addr constant [125 x i8] c"if boxrad > 1.0 && dashwid < 0.075 then X\0A\09fillval = 1;\0A\09define fill Y Y;\0A\09define solid Y Y;\0A\09define reset Y scale=1.0 Y;\0AX\0A\00", align 1
@.str.22 = private unnamed_addr constant [29 x i8] c"reset %s set to known state\0A\00", align 1
@.str.23 = private unnamed_addr constant [40 x i8] c"%s GNU pic vs. 10th Edition d\\(e'tente\0A\00", align 1
@.str.24 = private unnamed_addr constant [93 x i8] c"if fillval > 0.4 then X\0A\09define setfillval Y fillval = 1 - Y;\0A\09define bold Y thickness 2 Y;\0A\00", align 1
@.str.25 = private unnamed_addr constant [59 x i8] c"\09%s if you use gpic and it barfs on encountering \22solid\22,\0A\00", align 1
@.str.26 = private unnamed_addr constant [81 x i8] c"\09%s\09install a more recent version of gpic or switch to DWB or 10th Edition pic;\0A\00", align 1
@.str.27 = private unnamed_addr constant [70 x i8] c"\09%s\09sorry, the groff folks changed gpic; send any complaint to them;\0A\00", align 1
@.str.28 = private unnamed_addr constant [89 x i8] c"X else Z\0A\09define setfillval Y fillval = Y;\0A\09define bold Y Y;\0A\09define filled Y fill Y;\0AZ\0A\00", align 1
@.str.29 = private unnamed_addr constant [105 x i8] c"%s arrowhead has no meaning in DWB 2, arrowhead = 7 makes filled arrowheads in gpic and in 10th Edition\0A\00", align 1
@.str.30 = private unnamed_addr constant [76 x i8] c"%s arrowhead is undefined in DWB 2, initially 1 in gpic, 2 in 10th Edition\0A\00", align 1
@.str.31 = private unnamed_addr constant [39 x i8] c"arrowhead = 7 %s not used by graphviz\0A\00", align 1
@.str.32 = private unnamed_addr constant [99 x i8] c"%s GNU pic supports a boxrad variable to draw boxes with rounded corners; DWB and 10th Ed. do not\0A\00", align 1
@.str.33 = private unnamed_addr constant [46 x i8] c"boxrad = 0 %s no rounded corners in graphviz\0A\00", align 1
@.str.34 = private unnamed_addr constant [89 x i8] c"%s GNU pic supports a linethick variable to set line thickness; DWB and 10th Ed. do not\0A\00", align 1
@.str.35 = private unnamed_addr constant [41 x i8] c"linethick = 0; oldlinethick = linethick\0A\00", align 1
@.str.36 = private unnamed_addr constant [83 x i8] c"%s .PS w/o args causes GNU pic to scale drawing to fit 8.5x11 paper; DWB does not\0A\00", align 1
@.str.37 = private unnamed_addr constant [101 x i8] c"%s maxpsht and maxpswid have no meaning in DWB 2.0, set page boundaries in gpic and in 10th Edition\0A\00", align 1
@.str.38 = private unnamed_addr constant [64 x i8] c"%s maxpsht and maxpswid are predefined to 11.0 and 8.5 in gpic\0A\00", align 1
@.str.39 = private unnamed_addr constant [28 x i8] c"maxpsht = %f\0Amaxpswid = %f\0A\00", align 1
@.str.40 = private unnamed_addr constant [8 x i8] c"Dot: [\0A\00", align 1
@.str.41 = private unnamed_addr constant [90 x i8] c"define attrs0 %% %%; define unfilled %% %%; define rounded %% %%; define diagonals %% %%\0A\00", align 1
@.str.42 = private unnamed_addr constant [18 x i8] c"%s%s unsupported\0A\00", align 1
@picgen_msghdr = internal constant [17 x i8] c"dot pic plugin: \00", align 16

; Function Attrs: nounwind uwtable
define internal void @unsupported(ptr noundef %0) #0 {
  %2 = alloca ptr, align 8
  store ptr %0, ptr %2, align 8, !tbaa !36
  %3 = load ptr, ptr %2, align 8, !tbaa !36
  call void (ptr, ...) @agwarningf(ptr noundef @.str.42, ptr noundef @picgen_msghdr, ptr noundef %3)
  ret void
}

; Function Attrs: nounwind uwtable
define internal void @pic_begin_page(ptr noundef %0) #0 {
  %2 = alloca ptr, align 8
  %3 = alloca %struct.box, align 4
  %4 = alloca double, align 8
  %5 = alloca double, align 8
  %6 = alloca double, align 8
  store ptr %0, ptr %2, align 8, !tbaa !3
  call void @llvm.lifetime.start.p0(i64 16, ptr %3) #8
  %7 = load ptr, ptr %2, align 8, !tbaa !3
  %8 = getelementptr inbounds nuw %struct.GVJ_s, ptr %7, i32 0, i32 49
  call void @llvm.memcpy.p0.p0.i64(ptr align 4 %3, ptr align 8 %8, i64 16, i1 false), !tbaa.struct !38
  %9 = load i8, ptr @onetime, align 1, !tbaa !40, !range !41, !noundef !42
  %10 = trunc i8 %9 to i1
  br i1 %10, label %11, label %22

11:                                               ; preds = %1
  %12 = load ptr, ptr %2, align 8, !tbaa !3
  %13 = getelementptr inbounds nuw %struct.GVJ_s, ptr %12, i32 0, i32 42
  %14 = load i32, ptr %13, align 8, !tbaa !43
  %15 = icmp ne i32 %14, 0
  br i1 %15, label %16, label %22

16:                                               ; preds = %11
  %17 = load ptr, ptr %2, align 8, !tbaa !3
  %18 = getelementptr inbounds nuw %struct.GVJ_s, ptr %17, i32 0, i32 42
  %19 = load i32, ptr %18, align 8, !tbaa !43
  %20 = icmp ne i32 %19, 90
  br i1 %20, label %21, label %22

21:                                               ; preds = %16
  call void @unsupported(ptr noundef @.str.6)
  store i8 0, ptr @onetime, align 1, !tbaa !40
  br label %22

22:                                               ; preds = %21, %16, %11, %1
  call void @llvm.lifetime.start.p0(i64 8, ptr %4) #8
  %23 = getelementptr inbounds nuw %struct.box, ptr %3, i32 0, i32 1
  %24 = getelementptr inbounds nuw %struct.point, ptr %23, i32 0, i32 1
  %25 = load i32, ptr %24, align 4, !tbaa !44
  %26 = sitofp i32 %25 to double
  %27 = getelementptr inbounds nuw %struct.box, ptr %3, i32 0, i32 0
  %28 = getelementptr inbounds nuw %struct.point, ptr %27, i32 0, i32 1
  %29 = load i32, ptr %28, align 4, !tbaa !45
  %30 = sitofp i32 %29 to double
  %31 = fsub double %26, %30
  %32 = fdiv double %31, 7.200000e+01
  store double %32, ptr %4, align 8, !tbaa !46
  call void @llvm.lifetime.start.p0(i64 8, ptr %5) #8
  %33 = getelementptr inbounds nuw %struct.box, ptr %3, i32 0, i32 1
  %34 = getelementptr inbounds nuw %struct.point, ptr %33, i32 0, i32 0
  %35 = load i32, ptr %34, align 4, !tbaa !47
  %36 = sitofp i32 %35 to double
  %37 = getelementptr inbounds nuw %struct.box, ptr %3, i32 0, i32 0
  %38 = getelementptr inbounds nuw %struct.point, ptr %37, i32 0, i32 0
  %39 = load i32, ptr %38, align 4, !tbaa !48
  %40 = sitofp i32 %39 to double
  %41 = fsub double %36, %40
  %42 = fdiv double %41, 7.200000e+01
  store double %42, ptr %5, align 8, !tbaa !46
  %43 = load ptr, ptr %2, align 8, !tbaa !3
  %44 = getelementptr inbounds nuw %struct.GVJ_s, ptr %43, i32 0, i32 42
  %45 = load i32, ptr %44, align 8, !tbaa !43
  %46 = icmp eq i32 %45, 90
  br i1 %46, label %47, label %51

47:                                               ; preds = %22
  call void @llvm.lifetime.start.p0(i64 8, ptr %6) #8
  %48 = load double, ptr %5, align 8, !tbaa !46
  store double %48, ptr %6, align 8, !tbaa !46
  %49 = load double, ptr %4, align 8, !tbaa !46
  store double %49, ptr %5, align 8, !tbaa !46
  %50 = load double, ptr %6, align 8, !tbaa !46
  store double %50, ptr %4, align 8, !tbaa !46
  call void @llvm.lifetime.end.p0(i64 8, ptr %6) #8
  br label %51

51:                                               ; preds = %47, %22
  %52 = load ptr, ptr %2, align 8, !tbaa !3
  %53 = load double, ptr %5, align 8, !tbaa !46
  %54 = load double, ptr %4, align 8, !tbaa !46
  call void (ptr, ptr, ...) @gvprintf(ptr noundef %52, ptr noundef @.str.7, double noundef %53, double noundef %54)
  %55 = load ptr, ptr %2, align 8, !tbaa !3
  call void (ptr, ptr, ...) @gvprintf(ptr noundef %55, ptr noundef @.str.8, ptr noundef @pic_comments)
  %56 = load double, ptr %5, align 8, !tbaa !46
  %57 = fcmp ogt double %56, 0.000000e+00
  br i1 %57, label %58, label %67

58:                                               ; preds = %51
  %59 = load double, ptr %5, align 8, !tbaa !46
  %60 = call double @log10(double noundef %59) #8, !tbaa !39
  store double %60, ptr @Fontscale, align 8, !tbaa !46
  %61 = load double, ptr @Fontscale, align 8, !tbaa !46
  %62 = fptosi double %61 to i32
  %63 = sitofp i32 %62 to double
  %64 = fsub double 3.000000e+00, %63
  %65 = load double, ptr @Fontscale, align 8, !tbaa !46
  %66 = fadd double %65, %64
  store double %66, ptr @Fontscale, align 8, !tbaa !46
  br label %68

67:                                               ; preds = %51
  store double 3.000000e+00, ptr @Fontscale, align 8, !tbaa !46
  br label %68

68:                                               ; preds = %67, %58
  %69 = load double, ptr @Fontscale, align 8, !tbaa !46
  %70 = call double @pow(double noundef 1.000000e+01, double noundef %69) #8, !tbaa !39
  store double %70, ptr @Fontscale, align 8, !tbaa !46
  %71 = load ptr, ptr %2, align 8, !tbaa !3
  %72 = load double, ptr @Fontscale, align 8, !tbaa !46
  %73 = load double, ptr @Fontscale, align 8, !tbaa !46
  call void (ptr, ptr, ...) @gvprintf(ptr noundef %71, ptr noundef @.str.9, double noundef %72, double noundef %73)
  %74 = load ptr, ptr %2, align 8, !tbaa !3
  call void (ptr, ptr, ...) @gvprintf(ptr noundef %74, ptr noundef @.str.10, ptr noundef @pic_comments)
  %75 = load ptr, ptr %2, align 8, !tbaa !3
  call void (ptr, ptr, ...) @gvprintf(ptr noundef %75, ptr noundef @.str.11, ptr noundef @pic_comments)
  %76 = load ptr, ptr %2, align 8, !tbaa !3
  call void (ptr, ptr, ...) @gvprintf(ptr noundef %76, ptr noundef @.str.12, ptr noundef @pic_comments)
  %77 = load ptr, ptr %2, align 8, !tbaa !3
  call void (ptr, ptr, ...) @gvprintf(ptr noundef %77, ptr noundef @.str.13, ptr noundef @pic_comments)
  %78 = load ptr, ptr %2, align 8, !tbaa !3
  call void (ptr, ptr, ...) @gvprintf(ptr noundef %78, ptr noundef @.str.14, ptr noundef @pic_comments)
  %79 = load ptr, ptr %2, align 8, !tbaa !3
  call void (ptr, ptr, ...) @gvprintf(ptr noundef %79, ptr noundef @.str.15, ptr noundef @pic_comments)
  %80 = load ptr, ptr %2, align 8, !tbaa !3
  call void (ptr, ptr, ...) @gvprintf(ptr noundef %80, ptr noundef @.str.16, ptr noundef @pic_comments)
  %81 = load ptr, ptr %2, align 8, !tbaa !3
  call void (ptr, ptr, ...) @gvprintf(ptr noundef %81, ptr noundef @.str.17, ptr noundef @pic_comments)
  %82 = load ptr, ptr %2, align 8, !tbaa !3
  call void (ptr, ptr, ...) @gvprintf(ptr noundef %82, ptr noundef @.str.18, ptr noundef @pic_comments)
  %83 = load ptr, ptr %2, align 8, !tbaa !3
  call void (ptr, ptr, ...) @gvprintf(ptr noundef %83, ptr noundef @.str.19, ptr noundef @pic_comments)
  %84 = load ptr, ptr %2, align 8, !tbaa !3
  call void (ptr, ptr, ...) @gvprintf(ptr noundef %84, ptr noundef @.str.20, ptr noundef @pic_comments)
  %85 = load ptr, ptr %2, align 8, !tbaa !3
  call void (ptr, ptr, ...) @gvprintf(ptr noundef %85, ptr noundef @.str.21)
  %86 = load ptr, ptr %2, align 8, !tbaa !3
  call void (ptr, ptr, ...) @gvprintf(ptr noundef %86, ptr noundef @.str.22, ptr noundef @pic_comments)
  %87 = load ptr, ptr %2, align 8, !tbaa !3
  call void (ptr, ptr, ...) @gvprintf(ptr noundef %87, ptr noundef @.str.23, ptr noundef @pic_comments)
  %88 = load ptr, ptr %2, align 8, !tbaa !3
  call void (ptr, ptr, ...) @gvprintf(ptr noundef %88, ptr noundef @.str.24)
  %89 = load ptr, ptr %2, align 8, !tbaa !3
  call void (ptr, ptr, ...) @gvprintf(ptr noundef %89, ptr noundef @.str.25, ptr noundef @pic_comments)
  %90 = load ptr, ptr %2, align 8, !tbaa !3
  call void (ptr, ptr, ...) @gvprintf(ptr noundef %90, ptr noundef @.str.26, ptr noundef @pic_comments)
  %91 = load ptr, ptr %2, align 8, !tbaa !3
  call void (ptr, ptr, ...) @gvprintf(ptr noundef %91, ptr noundef @.str.27, ptr noundef @pic_comments)
  %92 = load ptr, ptr %2, align 8, !tbaa !3
  call void (ptr, ptr, ...) @gvprintf(ptr noundef %92, ptr noundef @.str.28)
  %93 = load ptr, ptr %2, align 8, !tbaa !3
  call void (ptr, ptr, ...) @gvprintf(ptr noundef %93, ptr noundef @.str.29, ptr noundef @pic_comments)
  %94 = load ptr, ptr %2, align 8, !tbaa !3
  call void (ptr, ptr, ...) @gvprintf(ptr noundef %94, ptr noundef @.str.30, ptr noundef @pic_comments)
  %95 = load ptr, ptr %2, align 8, !tbaa !3
  call void (ptr, ptr, ...) @gvprintf(ptr noundef %95, ptr noundef @.str.31, ptr noundef @pic_comments)
  %96 = load ptr, ptr %2, align 8, !tbaa !3
  call void (ptr, ptr, ...) @gvprintf(ptr noundef %96, ptr noundef @.str.32, ptr noundef @pic_comments)
  %97 = load ptr, ptr %2, align 8, !tbaa !3
  call void (ptr, ptr, ...) @gvprintf(ptr noundef %97, ptr noundef @.str.33, ptr noundef @pic_comments)
  %98 = load ptr, ptr %2, align 8, !tbaa !3
  call void (ptr, ptr, ...) @gvprintf(ptr noundef %98, ptr noundef @.str.34, ptr noundef @pic_comments)
  %99 = load ptr, ptr %2, align 8, !tbaa !3
  call void (ptr, ptr, ...) @gvprintf(ptr noundef %99, ptr noundef @.str.35)
  %100 = load ptr, ptr %2, align 8, !tbaa !3
  call void (ptr, ptr, ...) @gvprintf(ptr noundef %100, ptr noundef @.str.36, ptr noundef @pic_comments)
  %101 = load ptr, ptr %2, align 8, !tbaa !3
  call void (ptr, ptr, ...) @gvprintf(ptr noundef %101, ptr noundef @.str.37, ptr noundef @pic_comments)
  %102 = load ptr, ptr %2, align 8, !tbaa !3
  call void (ptr, ptr, ...) @gvprintf(ptr noundef %102, ptr noundef @.str.38, ptr noundef @pic_comments)
  %103 = load ptr, ptr %2, align 8, !tbaa !3
  %104 = load double, ptr %4, align 8, !tbaa !46
  %105 = load double, ptr %5, align 8, !tbaa !46
  call void (ptr, ptr, ...) @gvprintf(ptr noundef %103, ptr noundef @.str.39, double noundef %104, double noundef %105)
  %106 = load ptr, ptr %2, align 8, !tbaa !3
  call void (ptr, ptr, ...) @gvprintf(ptr noundef %106, ptr noundef @.str.40)
  %107 = load ptr, ptr %2, align 8, !tbaa !3
  call void (ptr, ptr, ...) @gvprintf(ptr noundef %107, ptr noundef @.str.41)
  call void @llvm.lifetime.end.p0(i64 8, ptr %5) #8
  call void @llvm.lifetime.end.p0(i64 8, ptr %4) #8
  call void @llvm.lifetime.end.p0(i64 16, ptr %3) #8
  ret void
}