; Function Attrs: nounwind uwtable
define internal void @pic_begin_page(ptr noundef %0) #0 {
  %2 = getelementptr inbounds nuw i8, ptr %0, i64 584
  %.sroa.0.0.copyload = load i32, ptr %2, align 8, !tbaa !36
  %.sroa.4.0..sroa_idx = getelementptr inbounds nuw i8, ptr %0, i64 588
  %.sroa.4.0.copyload = load i32, ptr %.sroa.4.0..sroa_idx, align 4, !tbaa !36
  %.sroa.5.0..sroa_idx = getelementptr inbounds nuw i8, ptr %0, i64 592
  %.sroa.5.0.copyload = load i32, ptr %.sroa.5.0..sroa_idx, align 8, !tbaa !36
  %.sroa.6.0..sroa_idx = getelementptr inbounds nuw i8, ptr %0, i64 596
  %.sroa.6.0.copyload = load i32, ptr %.sroa.6.0..sroa_idx, align 4, !tbaa !36
  %.b = load i1, ptr @onetime, align 1
  br i1 %.b, label %7, label %3

3:                                                ; preds = %1
  %4 = getelementptr inbounds nuw i8, ptr %0, i64 488
  %5 = load i32, ptr %4, align 8, !tbaa !37
  switch i32 %5, label %6 [
    i32 0, label %7
    i32 90, label %7
  ]

6:                                                ; preds = %3
  tail call void (ptr, ...) @agwarningf(ptr noundef nonnull @.str.42, ptr noundef nonnull @picgen_msghdr, ptr noundef nonnull @.str.6) #8
  store i1 true, ptr @onetime, align 1
  br label %7

7:                                                ; preds = %3, %3, %6, %1
  %8 = sitofp i32 %.sroa.6.0.copyload to double
  %9 = sitofp i32 %.sroa.4.0.copyload to double
  %10 = fsub double %8, %9
  %11 = fdiv double %10, 7.200000e+01
  %12 = sitofp i32 %.sroa.5.0.copyload to double
  %13 = sitofp i32 %.sroa.0.0.copyload to double
  %14 = fsub double %12, %13
  %15 = fdiv double %14, 7.200000e+01
  %16 = getelementptr inbounds nuw i8, ptr %0, i64 488
  %17 = load i32, ptr %16, align 8, !tbaa !37
  %18 = icmp eq i32 %17, 90
  %.048 = select i1 %18, double %11, double %15
  %.0 = select i1 %18, double %15, double %11
  tail call void (ptr, ptr, ...) @gvprintf(ptr noundef nonnull %0, ptr noundef nonnull @.str.7, double noundef %.048, double noundef %.0) #8
  tail call void (ptr, ptr, ...) @gvprintf(ptr noundef nonnull %0, ptr noundef nonnull @.str.8, ptr noundef nonnull @pic_comments) #8
  %19 = fcmp ogt double %.048, 0.000000e+00
  br i1 %19, label %20, label %26

20:                                               ; preds = %7
  %21 = tail call double @llvm.log10.f64(double %.048), !tbaa !36
  %22 = fptosi double %21 to i32
  %23 = sitofp i32 %22 to double
  %24 = fsub double 3.000000e+00, %23
  %25 = fadd double %21, %24
  br label %26

26:                                               ; preds = %7, %20
  %storemerge = phi double [ %25, %20 ], [ 3.000000e+00, %7 ]
  %27 = tail call double @pow(double noundef 1.000000e+01, double noundef %storemerge) #8, !tbaa !36
  store double %27, ptr @Fontscale, align 8, !tbaa !38
  tail call void (ptr, ptr, ...) @gvprintf(ptr noundef nonnull %0, ptr noundef nonnull @.str.9, double noundef %27, double noundef %27) #8
  tail call void (ptr, ptr, ...) @gvprintf(ptr noundef nonnull %0, ptr noundef nonnull @.str.10, ptr noundef nonnull @pic_comments) #8
  tail call void (ptr, ptr, ...) @gvprintf(ptr noundef nonnull %0, ptr noundef nonnull @.str.11, ptr noundef nonnull @pic_comments) #8
  tail call void (ptr, ptr, ...) @gvprintf(ptr noundef nonnull %0, ptr noundef nonnull @.str.12, ptr noundef nonnull @pic_comments) #8
  tail call void (ptr, ptr, ...) @gvprintf(ptr noundef nonnull %0, ptr noundef nonnull @.str.13, ptr noundef nonnull @pic_comments) #8
  tail call void (ptr, ptr, ...) @gvprintf(ptr noundef nonnull %0, ptr noundef nonnull @.str.14, ptr noundef nonnull @pic_comments) #8
  tail call void (ptr, ptr, ...) @gvprintf(ptr noundef nonnull %0, ptr noundef nonnull @.str.15, ptr noundef nonnull @pic_comments) #8
  tail call void (ptr, ptr, ...) @gvprintf(ptr noundef nonnull %0, ptr noundef nonnull @.str.16, ptr noundef nonnull @pic_comments) #8
  tail call void (ptr, ptr, ...) @gvprintf(ptr noundef nonnull %0, ptr noundef nonnull @.str.17, ptr noundef nonnull @pic_comments) #8
  tail call void (ptr, ptr, ...) @gvprintf(ptr noundef nonnull %0, ptr noundef nonnull @.str.18, ptr noundef nonnull @pic_comments) #8
  tail call void (ptr, ptr, ...) @gvprintf(ptr noundef nonnull %0, ptr noundef nonnull @.str.19, ptr noundef nonnull @pic_comments) #8
  tail call void (ptr, ptr, ...) @gvprintf(ptr noundef nonnull %0, ptr noundef nonnull @.str.20, ptr noundef nonnull @pic_comments) #8
  tail call void (ptr, ptr, ...) @gvprintf(ptr noundef nonnull %0, ptr noundef nonnull @.str.21) #8
  tail call void (ptr, ptr, ...) @gvprintf(ptr noundef nonnull %0, ptr noundef nonnull @.str.22, ptr noundef nonnull @pic_comments) #8
  tail call void (ptr, ptr, ...) @gvprintf(ptr noundef nonnull %0, ptr noundef nonnull @.str.23, ptr noundef nonnull @pic_comments) #8
  tail call void (ptr, ptr, ...) @gvprintf(ptr noundef nonnull %0, ptr noundef nonnull @.str.24) #8
  tail call void (ptr, ptr, ...) @gvprintf(ptr noundef nonnull %0, ptr noundef nonnull @.str.25, ptr noundef nonnull @pic_comments) #8
  tail call void (ptr, ptr, ...) @gvprintf(ptr noundef nonnull %0, ptr noundef nonnull @.str.26, ptr noundef nonnull @pic_comments) #8
  tail call void (ptr, ptr, ...) @gvprintf(ptr noundef nonnull %0, ptr noundef nonnull @.str.27, ptr noundef nonnull @pic_comments) #8
  tail call void (ptr, ptr, ...) @gvprintf(ptr noundef nonnull %0, ptr noundef nonnull @.str.28) #8
  tail call void (ptr, ptr, ...) @gvprintf(ptr noundef nonnull %0, ptr noundef nonnull @.str.29, ptr noundef nonnull @pic_comments) #8
  tail call void (ptr, ptr, ...) @gvprintf(ptr noundef nonnull %0, ptr noundef nonnull @.str.30, ptr noundef nonnull @pic_comments) #8
  tail call void (ptr, ptr, ...) @gvprintf(ptr noundef nonnull %0, ptr noundef nonnull @.str.31, ptr noundef nonnull @pic_comments) #8
  tail call void (ptr, ptr, ...) @gvprintf(ptr noundef nonnull %0, ptr noundef nonnull @.str.32, ptr noundef nonnull @pic_comments) #8
  tail call void (ptr, ptr, ...) @gvprintf(ptr noundef nonnull %0, ptr noundef nonnull @.str.33, ptr noundef nonnull @pic_comments) #8
  tail call void (ptr, ptr, ...) @gvprintf(ptr noundef nonnull %0, ptr noundef nonnull @.str.34, ptr noundef nonnull @pic_comments) #8
  tail call void (ptr, ptr, ...) @gvprintf(ptr noundef nonnull %0, ptr noundef nonnull @.str.35) #8
  tail call void (ptr, ptr, ...) @gvprintf(ptr noundef nonnull %0, ptr noundef nonnull @.str.36, ptr noundef nonnull @pic_comments) #8
  tail call void (ptr, ptr, ...) @gvprintf(ptr noundef nonnull %0, ptr noundef nonnull @.str.37, ptr noundef nonnull @pic_comments) #8
  tail call void (ptr, ptr, ...) @gvprintf(ptr noundef nonnull %0, ptr noundef nonnull @.str.38, ptr noundef nonnull @pic_comments) #8
  tail call void (ptr, ptr, ...) @gvprintf(ptr noundef nonnull %0, ptr noundef nonnull @.str.39, double noundef %.0, double noundef %.048) #8
  tail call void (ptr, ptr, ...) @gvprintf(ptr noundef nonnull %0, ptr noundef nonnull @.str.40) #8
  tail call void (ptr, ptr, ...) @gvprintf(ptr noundef nonnull %0, ptr noundef nonnull @.str.41) #8
  ret void
}